target datalayout = "e-m:e-p270:32:32-p271:32:32-p272:64:64-i64:64-i128:128-f80:128-n8:16:32:64-S128"
target triple = "x86_64-pc-linux-gnu"

%"struct.pxrInternal_v0_24__pxrReserved__::TfStreamDouble" = type { double }
%"class.pxrInternal_v0_24__pxrReserved__::GfMatrix2d" = type { %"class.pxrInternal_v0_24__pxrReserved__::GfMatrixData" }
%"class.pxrInternal_v0_24__pxrReserved__::GfMatrixData" = type { [4 x double] }

@.str.2 = private unnamed_addr constant [4 x i8] c"( (\00", align 1
@.str.3 = private unnamed_addr constant [3 x i8] c", \00", align 1
@.str.4 = private unnamed_addr constant [5 x i8] c"), (\00", align 1
@.str.5 = private unnamed_addr constant [4 x i8] c") )\00", align 1

; Function Attrs: mustprogress nounwind uwtable
define linkonce_odr void @_ZN32pxrInternal_v0_24__pxrReserved__14TfStreamDoubleC2Ed(ptr noundef nonnull align 8 dereferenceable(8) %0, double noundef %1) unnamed_addr #2 comdat align 2 {
  %3 = alloca ptr, align 8
  %4 = alloca double, align 8
  store ptr %0, ptr %3, align 8
  store double %1, ptr %4, align 8
  %5 = load ptr, ptr %3, align 8
  %6 = getelementptr inbounds nuw %"struct.pxrInternal_v0_24__pxrReserved__::TfStreamDouble", ptr %5, i32 0, i32 0
  %7 = load double, ptr %4, align 8
  store double %7, ptr %6, align 8
  ret void
}

; Function Attrs: mustprogress nounwind uwtable
define linkonce_odr noundef ptr @_ZNK32pxrInternal_v0_24__pxrReserved__12GfMatrixDataIdLi2ELi2EEixEi(ptr noundef nonnull align 8 dereferenceable(32) %0, i32 noundef %1) #2 comdat align 2 {
  %3 = alloca ptr, align 8
  %4 = alloca i32, align 4
  store ptr %0, ptr %3, align 8
  store i32 %1, ptr %4, align 4
  %5 = load ptr, ptr %3, align 8
  %6 = getelementptr inbounds nuw %"class.pxrInternal_v0_24__pxrReserved__::GfMatrixData", ptr %5, i32 0, i32 0
  %7 = getelementptr inbounds [4 x double], ptr %6, i64 0, i64 0
  %8 = load i32, ptr %4, align 4
  %9 = mul nsw i32 %8, 2
  %10 = sext i32 %9 to i64
  %11 = getelementptr inbounds double, ptr %7, i64 %10
  ret ptr %11
}

; Function Attrs: mustprogress uwtable
define linkonce_odr double @_ZN32pxrInternal_v0_24__pxrReserved__17Gf_OstreamHelperPEd(double noundef %0) #0 comdat {
  %2 = alloca %"struct.pxrInternal_v0_24__pxrReserved__::TfStreamDouble", align 8
  %3 = alloca double, align 8
  store double %0, ptr %3, align 8
  %4 = load double, ptr %3, align 8
  call void @_ZN32pxrInternal_v0_24__pxrReserved__14TfStreamDoubleC2Ed(ptr noundef nonnull align 8 dereferenceable(8) %2, double noundef %4)
  %5 = getelementptr inbounds nuw %"struct.pxrInternal_v0_24__pxrReserved__::TfStreamDouble", ptr %2, i32 0, i32 0
  %6 = load double, ptr %5, align 8
  ret double %6
}

; Function Attrs: mustprogress uwtable
define linkonce_odr noundef ptr @_ZNK32pxrInternal_v0_24__pxrReserved__10GfMatrix2dixEi(ptr noundef nonnull align 8 dereferenceable(32) %0, i32 noundef %1) #0 comdat align 2 {
  %3 = alloca ptr, align 8
  %4 = alloca i32, align 4
  store ptr %0, ptr %3, align 8
  store i32 %1, ptr %4, align 4
  %5 = load ptr, ptr %3, align 8
  %6 = getelementptr inbounds nuw %"class.pxrInternal_v0_24__pxrReserved__::GfMatrix2d", ptr %5, i32 0, i32 0
  %7 = load i32, ptr %4, align 4
  %8 = call noundef ptr @_ZNK32pxrInternal_v0_24__pxrReserved__12GfMatrixDataIdLi2ELi2EEixEi(ptr noundef nonnull align 8 dereferenceable(32) %6, i32 noundef %7)
  ret ptr %8
}

; Function Attrs: mustprogress uwtable
define noundef nonnull align 8 dereferenceable(8) ptr @_ZN32pxrInternal_v0_24__pxrReserved__lsERSoRKNS_10GfMatrix2dE(ptr noundef nonnull align 8 dereferenceable(8) %0, ptr noundef nonnull align 8 dereferenceable(32) %1) #0 {
  %3 = alloca ptr, align 8
  %4 = alloca ptr, align 8
  %5 = alloca %"struct.pxrInternal_v0_24__pxrReserved__::TfStreamDouble", align 8
  %6 = alloca %"struct.pxrInternal_v0_24__pxrReserved__::TfStreamDouble", align 8
  %7 = alloca %"struct.pxrInternal_v0_24__pxrReserved__::TfStreamDouble", align 8
  %8 = alloca %"struct.pxrInternal_v0_24__pxrReserved__::TfStreamDouble", align 8
  store ptr %0, ptr %3, align 8
  store ptr %1, ptr %4, align 8
  %9 = load ptr, ptr %3, align 8
  %10 = call noundef nonnull align 8 dereferenceable(8) ptr @_ZStlsISt11char_traitsIcEERSt13basic_ostreamIcT_ES5_PKc(ptr noundef nonnull align 8 dereferenceable(8) %9, ptr noundef @.str.2)
  %11 = load ptr, ptr %4, align 8
  %12 = call noundef ptr @_ZNK32pxrInternal_v0_24__pxrReserved__10GfMatrix2dixEi(ptr noundef nonnull align 8 dereferenceable(32) %11, i32 noundef 0)
  %13 = getelementptr inbounds double, ptr %12, i64 0
  %14 = load double, ptr %13, align 8
  %15 = call double @_ZN32pxrInternal_v0_24__pxrReserved__17Gf_OstreamHelperPEd(double noundef %14)
  %16 = getelementptr inbounds nuw %"struct.pxrInternal_v0_24__pxrReserved__::TfStreamDouble", ptr %5, i32 0, i32 0
  store double %15, ptr %16, align 8
  %17 = getelementptr inbounds nuw %"struct.pxrInternal_v0_24__pxrReserved__::TfStreamDouble", ptr %5, i32 0, i32 0
  %18 = load double, ptr %17, align 8
  %19 = call noundef nonnull align 8 dereferenceable(8) ptr @_ZN32pxrInternal_v0_24__pxrReserved__lsERSoNS_14TfStreamDoubleE(ptr noundef nonnull align 8 dereferenceable(8) %10, double %18)
  %20 = call noundef nonnull align 8 dereferenceable(8) ptr @_ZStlsISt11char_traitsIcEERSt13basic_ostreamIcT_ES5_PKc(ptr noundef nonnull align 8 dereferenceable(8) %19, ptr noundef @.str.3)
  %21 = load ptr, ptr %4, align 8
  %22 = call noundef ptr @_ZNK32pxrInternal_v0_24__pxrReserved__10GfMatrix2dixEi(ptr noundef nonnull align 8 dereferenceable(32) %21, i32 noundef 0)
  %23 = getelementptr inbounds double, ptr %22, i64 1
  %24 = load double, ptr %23, align 8
  %25 = call double @_ZN32pxrInternal_v0_24__pxrReserved__17Gf_OstreamHelperPEd(double noundef %24)
  %26 = getelementptr inbounds nuw %"struct.pxrInternal_v0_24__pxrReserved__::TfStreamDouble", ptr %6, i32 0, i32 0
  store double %25, ptr %26, align 8
  %27 = getelementptr inbounds nuw %"struct.pxrInternal_v0_24__pxrReserved__::TfStreamDouble", ptr %6, i32 0, i32 0
  %28 = load double, ptr %27, align 8
  %29 = call noundef nonnull align 8 dereferenceable(8) ptr @_ZN32pxrInternal_v0_24__pxrReserved__lsERSoNS_14TfStreamDoubleE(ptr noundef nonnull align 8 dereferenceable(8) %20, double %28)
  %30 = call noundef nonnull align 8 dereferenceable(8) ptr @_ZStlsISt11char_traitsIcEERSt13basic_ostreamIcT_ES5_PKc(ptr noundef nonnull align 8 dereferenceable(8) %29, ptr noundef @.str.4)
  %31 = load ptr, ptr %4, align 8
  %32 = call noundef ptr @_ZNK32pxrInternal_v0_24__pxrReserved__10GfMatrix2dixEi(ptr noundef nonnull align 8 dereferenceable(32) %31, i32 noundef 1)
  %33 = getelementptr inbounds double, ptr %32, i64 0
  %34 = load double, ptr %33, align 8
  %35 = call double @_ZN32pxrInternal_v0_24__pxrReserved__17Gf_OstreamHelperPEd(double noundef %34)
  %36 = getelementptr inbounds nuw %"struct.pxrInternal_v0_24__pxrReserved__::TfStreamDouble", ptr %7, i32 0, i32 0
  store double %35, ptr %36, align 8
  %37 = getelementptr inbounds nuw %"struct.pxrInternal_v0_24__pxrReserved__::TfStreamDouble", ptr %7, i32 0, i32 0
  %38 = load double, ptr %37, align 8
  %39 = call noundef nonnull align 8 dereferenceable(8) ptr @_ZN32pxrInternal_v0_24__pxrReserved__lsERSoNS_14TfStreamDoubleE(ptr noundef nonnull align 8 dereferenceable(8) %30, double %38)
  %40 = call noundef nonnull align 8 dereferenceable(8) ptr @_ZStlsISt11char_traitsIcEERSt13basic_ostreamIcT_ES5_PKc(ptr noundef nonnull align 8 dereferenceable(8) %39, ptr noundef @.str.3)
  %41 = load ptr, ptr %4, align 8
  %42 = call noundef ptr @_ZNK32pxrInternal_v0_24__pxrReserved__10GfMatrix2dixEi(ptr noundef nonnull align 8 dereferenceable(32) %41, i32 noundef 1)
  %43 = getelementptr inbounds double, ptr %42, i64 1
  %44 = load double, ptr %43, align 8
  %45 = call double @_ZN32pxrInternal_v0_24__pxrReserved__17Gf_OstreamHelperPEd(double noundef %44)
  %46 = getelementptr inbounds nuw %"struct.pxrInternal_v0_24__pxrReserved__::TfStreamDouble", ptr %8, i32 0, i32 0
  store double %45, ptr %46, align 8
  %47 = getelementptr inbounds nuw %"struct.pxrInternal_v0_24__pxrReserved__::TfStreamDouble", ptr %8, i32 0, i32 0
  %48 = load double, ptr %47, align 8
  %49 = call noundef nonnull align 8 dereferenceable(8) ptr @_ZN32pxrInternal_v0_24__pxrReserved__lsERSoNS_14TfStreamDoubleE(ptr noundef nonnull align 8 dereferenceable(8) %40, double %48)
  %50 = call noundef nonnull align 8 dereferenceable(8) ptr @_ZStlsISt11char_traitsIcEERSt13basic_ostreamIcT_ES5_PKc(ptr noundef nonnull align 8 dereferenceable(8) %49, ptr noundef @.str.5)
  ret ptr %50
}